target datalayout = "e-m:e-p270:32:32-p271:32:32-p272:64:64-i64:64-i128:128-f80:128-n8:16:32:64-S128"
target triple = "x86_64-pc-linux-gnu"

; Function Attrs: mustprogress uwtable
define internal noundef ptr @_ZN12_GLOBAL__N_112FopenCLOEXECERKNSt7__cxx1112basic_stringIcSt11char_traitsIcESaIcEEEPKc(ptr noundef nonnull align 8 dereferenceable(32) %0, ptr noundef %1) #5 {
  %3 = alloca ptr, align 8
  %4 = alloca ptr, align 8
  %5 = alloca ptr, align 8
  store ptr %0, ptr %3, align 8, !tbaa !46
  store ptr %1, ptr %4, align 8, !tbaa !28
  call void @llvm.lifetime.start.p0(i64 8, ptr %5) #3
  %6 = load ptr, ptr %3, align 8, !tbaa !46
  %7 = load ptr, ptr %4, align 8, !tbaa !28
  %8 = call noundef ptr @_ZN5cmsys11SystemTools5FopenERKNSt7__cxx1112basic_stringIcSt11char_traitsIcESaIcEEEPKc(ptr noundef nonnull align 8 dereferenceable(32) %6, ptr noundef %7)
  store ptr %8, ptr %5, align 8, !tbaa !30
  %9 = load ptr, ptr %5, align 8, !tbaa !30
  %10 = icmp ne ptr %9, null
  br i1 %10, label %11, label %20

11:                                               ; preds = %2
  %12 = load ptr, ptr %5, align 8, !tbaa !30
  %13 = call noundef i32 @_Z9cm_filenoP8_IO_FILE(ptr noundef %12)
  %14 = call i32 (i32, i32, ...) @fcntl(i32 noundef %13, i32 noundef 2, i32 noundef 1)
  %15 = icmp slt i32 %14, 0
  br i1 %15, label %16, label %19

16:                                               ; preds = %11
  %17 = load ptr, ptr %5, align 8, !tbaa !30
  %18 = call i32 @fclose(ptr noundef %17)
  store ptr null, ptr %5, align 8, !tbaa !30
  br label %19

19:                                               ; preds = %16, %11
  br label %20

20:                                               ; preds = %19, %2
  %21 = load ptr, ptr %5, align 8, !tbaa !30
  call void @llvm.lifetime.end.p0(i64 8, ptr %5) #3
  ret ptr %21
}