; Function Attrs: mustprogress uwtable
define internal fastcc noundef ptr @_ZN12_GLOBAL__N_112FopenCLOEXECERKNSt7__cxx1112basic_stringIcSt11char_traitsIcESaIcEEEPKc(ptr noundef nonnull align 8 dereferenceable(32) %0, ptr noundef %1) unnamed_addr #4 {
  %3 = tail call noundef ptr @_ZN5cmsys11SystemTools5FopenERKNSt7__cxx1112basic_stringIcSt11char_traitsIcESaIcEEEPKc(ptr noundef nonnull align 8 dereferenceable(32) %0, ptr noundef %1)
  %.not = icmp eq ptr %3, null
  br i1 %.not, label %10, label %4

4:                                                ; preds = %2
  %5 = tail call noundef i32 @_Z9cm_filenoP8_IO_FILE(ptr noundef nonnull %3)
  %6 = tail call i32 (i32, i32, ...) @fcntl(i32 noundef %5, i32 noundef 2, i32 noundef 1)
  %7 = icmp slt i32 %6, 0
  br i1 %7, label %8, label %10

8:                                                ; preds = %4
  %9 = tail call i32 @fclose(ptr noundef nonnull %3)
  br label %10

10:                                               ; preds = %4, %8, %2
  %.0 = phi ptr [ null, %8 ], [ %3, %4 ], [ null, %2 ]
  ret ptr %.0
}